target datalayout = "e-m:e-p270:32:32-p271:32:32-p272:64:64-i64:64-i128:128-f80:128-n8:16:32:64-S128"
target triple = "x86_64-pc-linux-gnu"

%struct.event_signal_map = type { ptr, i32 }
%struct.event_base = type { ptr, ptr, %struct.event_changelist, ptr, %struct.evsig_info, i32, i32, i32, i32, i32, i32, i32, i32, i32, i32, i32, i32, ptr, i32, %struct.evcallback_list, ptr, i32, i32, %struct.event_signal_map, %struct.event_signal_map, %struct.min_heap, %struct.timeval, %struct.evutil_monotonic_timer, %struct.timeval, i64, i64, ptr, ptr, i32, ptr, i32, %struct.timeval, i32, i32, i32, [2 x i32], %struct.event, ptr, %struct.evutil_weakrand_state, %struct.once_event_list, [2 x %struct.evwatch_list] }
%struct.event_changelist = type { ptr, i32, i32 }
%struct.evsig_info = type { %struct.event, [2 x i32], i32, i32, [65 x ptr], ptr, i32 }
%struct.evcallback_list = type { ptr, ptr }
%struct.min_heap = type { ptr, i64, i64 }
%struct.evutil_monotonic_timer = type { i32, %struct.timeval, %struct.timeval }
%struct.timeval = type { i64, i64 }
%struct.event = type { %struct.event_callback, %union.anon.0, i32, i16, i16, ptr, %union.anon.2, %struct.timeval }
%struct.event_callback = type { %struct.anon, i16, i8, i8, %union.anon, ptr }
%struct.anon = type { ptr, ptr }
%union.anon = type { ptr }
%union.anon.0 = type { %struct.anon.1 }
%struct.anon.1 = type { ptr, ptr }
%union.anon.2 = type { %struct.anon.3 }
%struct.anon.3 = type { %struct.anon.4, %struct.timeval }
%struct.anon.4 = type { ptr, ptr }
%struct.evutil_weakrand_state = type { i32 }
%struct.once_event_list = type { ptr }
%struct.evwatch_list = type { ptr, ptr }
%struct.evmap_foreach_event_helper = type { ptr, ptr }

; Function Attrs: nounwind uwtable
define internal i32 @evmap_signal_foreach_signal(ptr noundef %0, ptr noundef %1, ptr noundef %2) #0 {
  %4 = alloca ptr, align 8
  %5 = alloca ptr, align 8
  %6 = alloca ptr, align 8
  %7 = alloca ptr, align 8
  %8 = alloca i32, align 4
  %9 = alloca i32, align 4
  %10 = alloca ptr, align 8
  %11 = alloca i32, align 4
  store ptr %0, ptr %4, align 8
  store ptr %1, ptr %5, align 8
  store ptr %2, ptr %6, align 8
  call void @llvm.lifetime.start.p0(i64 8, ptr %7) #6
  %12 = load ptr, ptr %4, align 8
  %13 = getelementptr inbounds nuw %struct.event_base, ptr %12, i32 0, i32 24
  store ptr %13, ptr %7, align 8
  call void @llvm.lifetime.start.p0(i64 4, ptr %8) #6
  store i32 0, ptr %8, align 4
  call void @llvm.lifetime.start.p0(i64 4, ptr %9) #6
  store i32 0, ptr %9, align 4
  br label %14

14:                                               ; preds = %44, %3
  %15 = load i32, ptr %9, align 4
  %16 = load ptr, ptr %7, align 8
  %17 = getelementptr inbounds nuw %struct.event_signal_map, ptr %16, i32 0, i32 1
  %18 = load i32, ptr %17, align 8
  %19 = icmp slt i32 %15, %18
  br i1 %19, label %20, label %47

20:                                               ; preds = %14
  call void @llvm.lifetime.start.p0(i64 8, ptr %10) #6
  %21 = load ptr, ptr %7, align 8
  %22 = getelementptr inbounds nuw %struct.event_signal_map, ptr %21, i32 0, i32 0
  %23 = load ptr, ptr %22, align 8
  %24 = load i32, ptr %9, align 4
  %25 = sext i32 %24 to i64
  %26 = getelementptr inbounds ptr, ptr %23, i64 %25
  %27 = load ptr, ptr %26, align 8
  store ptr %27, ptr %10, align 8
  %28 = load ptr, ptr %10, align 8
  %29 = icmp ne ptr %28, null
  br i1 %29, label %31, label %30

30:                                               ; preds = %20
  store i32 4, ptr %11, align 4
  br label %41

31:                                               ; preds = %20
  %32 = load ptr, ptr %5, align 8
  %33 = load ptr, ptr %4, align 8
  %34 = load i32, ptr %9, align 4
  %35 = load ptr, ptr %10, align 8
  %36 = load ptr, ptr %6, align 8
  %37 = call i32 %32(ptr noundef %33, i32 noundef %34, ptr noundef %35, ptr noundef %36)
  store i32 %37, ptr %8, align 4
  %38 = icmp ne i32 %37, 0
  br i1 %38, label %39, label %40

39:                                               ; preds = %31
  store i32 2, ptr %11, align 4
  br label %41

40:                                               ; preds = %31
  store i32 0, ptr %11, align 4
  br label %41

41:                                               ; preds = %40, %39, %30
  call void @llvm.lifetime.end.p0(i64 8, ptr %10) #6
  %42 = load i32, ptr %11, align 4
  switch i32 %42, label %49 [
    i32 0, label %43
    i32 4, label %44
    i32 2, label %47
  ]

43:                                               ; preds = %41
  br label %44

44:                                               ; preds = %43, %41
  %45 = load i32, ptr %9, align 4
  %46 = add nsw i32 %45, 1
  store i32 %46, ptr %9, align 4
  br label %14, !llvm.loop !9

47:                                               ; preds = %41, %14
  %48 = load i32, ptr %8, align 4
  store i32 1, ptr %11, align 4
  call void @llvm.lifetime.end.p0(i64 4, ptr %9) #6
  call void @llvm.lifetime.end.p0(i64 4, ptr %8) #6
  call void @llvm.lifetime.end.p0(i64 8, ptr %7) #6
  ret i32 %48

49:                                               ; preds = %41
  unreachable
}

; Function Attrs: nounwind uwtable
define internal i32 @evmap_io_foreach_fd(ptr noundef %0, ptr noundef %1, ptr noundef %2) #0 {
  %4 = alloca ptr, align 8
  %5 = alloca ptr, align 8
  %6 = alloca ptr, align 8
  %7 = alloca i32, align 4
  %8 = alloca ptr, align 8
  %9 = alloca i32, align 4
  %10 = alloca ptr, align 8
  %11 = alloca i32, align 4
  store ptr %0, ptr %4, align 8
  store ptr %1, ptr %5, align 8
  store ptr %2, ptr %6, align 8
  call void @llvm.lifetime.start.p0(i64 4, ptr %7) #6
  call void @llvm.lifetime.start.p0(i64 8, ptr %8) #6
  %12 = load ptr, ptr %4, align 8
  %13 = getelementptr inbounds nuw %struct.event_base, ptr %12, i32 0, i32 23
  store ptr %13, ptr %8, align 8
  call void @llvm.lifetime.start.p0(i64 4, ptr %9) #6
  store i32 0, ptr %9, align 4
  store i32 0, ptr %7, align 4
  br label %14

14:                                               ; preds = %44, %3
  %15 = load i32, ptr %7, align 4
  %16 = load ptr, ptr %8, align 8
  %17 = getelementptr inbounds nuw %struct.event_signal_map, ptr %16, i32 0, i32 1
  %18 = load i32, ptr %17, align 8
  %19 = icmp slt i32 %15, %18
  br i1 %19, label %20, label %47

20:                                               ; preds = %14
  call void @llvm.lifetime.start.p0(i64 8, ptr %10) #6
  %21 = load ptr, ptr %8, align 8
  %22 = getelementptr inbounds nuw %struct.event_signal_map, ptr %21, i32 0, i32 0
  %23 = load ptr, ptr %22, align 8
  %24 = load i32, ptr %7, align 4
  %25 = sext i32 %24 to i64
  %26 = getelementptr inbounds ptr, ptr %23, i64 %25
  %27 = load ptr, ptr %26, align 8
  store ptr %27, ptr %10, align 8
  %28 = load ptr, ptr %10, align 8
  %29 = icmp ne ptr %28, null
  br i1 %29, label %31, label %30

30:                                               ; preds = %20
  store i32 4, ptr %11, align 4
  br label %41

31:                                               ; preds = %20
  %32 = load ptr, ptr %5, align 8
  %33 = load ptr, ptr %4, align 8
  %34 = load i32, ptr %7, align 4
  %35 = load ptr, ptr %10, align 8
  %36 = load ptr, ptr %6, align 8
  %37 = call i32 %32(ptr noundef %33, i32 noundef %34, ptr noundef %35, ptr noundef %36)
  store i32 %37, ptr %9, align 4
  %38 = icmp ne i32 %37, 0
  br i1 %38, label %39, label %40

39:                                               ; preds = %31
  store i32 2, ptr %11, align 4
  br label %41

40:                                               ; preds = %31
  store i32 0, ptr %11, align 4
  br label %41

41:                                               ; preds = %40, %39, %30
  call void @llvm.lifetime.end.p0(i64 8, ptr %10) #6
  %42 = load i32, ptr %11, align 4
  switch i32 %42, label %49 [
    i32 0, label %43
    i32 4, label %44
    i32 2, label %47
  ]

43:                                               ; preds = %41
  br label %44

44:                                               ; preds = %43, %41
  %45 = load i32, ptr %7, align 4
  %46 = add nsw i32 %45, 1
  store i32 %46, ptr %7, align 4
  br label %14, !llvm.loop !8

47:                                               ; preds = %41, %14
  %48 = load i32, ptr %9, align 4
  store i32 1, ptr %11, align 4
  call void @llvm.lifetime.end.p0(i64 4, ptr %9) #6
  call void @llvm.lifetime.end.p0(i64 8, ptr %8) #6
  call void @llvm.lifetime.end.p0(i64 4, ptr %7) #6
  ret i32 %48

49:                                               ; preds = %41
  unreachable
}

; Function Attrs: nounwind uwtable
define hidden i32 @evmap_foreach_event_(ptr noundef %0, ptr noundef %1, ptr noundef %2) #0 {
  %4 = alloca i32, align 4
  %5 = alloca ptr, align 8
  %6 = alloca ptr, align 8
  %7 = alloca ptr, align 8
  %8 = alloca %struct.evmap_foreach_event_helper, align 8
  %9 = alloca i32, align 4
  %10 = alloca i32, align 4
  store ptr %0, ptr %5, align 8
  store ptr %1, ptr %6, align 8
  store ptr %2, ptr %7, align 8
  call void @llvm.lifetime.start.p0(i64 16, ptr %8) #6
  call void @llvm.lifetime.start.p0(i64 4, ptr %9) #6
  %11 = load ptr, ptr %6, align 8
  %12 = getelementptr inbounds nuw %struct.evmap_foreach_event_helper, ptr %8, i32 0, i32 0
  store ptr %11, ptr %12, align 8
  %13 = load ptr, ptr %7, align 8
  %14 = getelementptr inbounds nuw %struct.evmap_foreach_event_helper, ptr %8, i32 0, i32 1
  store ptr %13, ptr %14, align 8
  %15 = load ptr, ptr %5, align 8
  %16 = call i32 @evmap_io_foreach_fd(ptr noundef %15, ptr noundef @evmap_io_foreach_event_fn, ptr noundef %8)
  store i32 %16, ptr %9, align 4
  %17 = icmp ne i32 %16, 0
  br i1 %17, label %18, label %20

18:                                               ; preds = %3
  %19 = load i32, ptr %9, align 4
  store i32 %19, ptr %4, align 4
  store i32 1, ptr %10, align 4
  br label %23

20:                                               ; preds = %3
  %21 = load ptr, ptr %5, align 8
  %22 = call i32 @evmap_signal_foreach_signal(ptr noundef %21, ptr noundef @evmap_signal_foreach_event_fn, ptr noundef %8)
  store i32 %22, ptr %4, align 4
  store i32 1, ptr %10, align 4
  br label %23

23:                                               ; preds = %20, %18
  call void @llvm.lifetime.end.p0(i64 4, ptr %9) #6
  call void @llvm.lifetime.end.p0(i64 16, ptr %8) #6
  %24 = load i32, ptr %4, align 4
  ret i32 %24
}