; Function Attrs: nounwind uwtable
define hidden i32 @evmap_foreach_event_(ptr noundef %0, ptr noundef readonly captures(none) %1, ptr noundef %2) local_unnamed_addr #1 {
  %4 = getelementptr inbounds nuw i8, ptr %0, i64 808
  %5 = getelementptr inbounds nuw i8, ptr %0, i64 816
  %6 = load i32, ptr %5, align 8
  %7 = icmp sgt i32 %6, 0
  br i1 %7, label %.lr.ph.i, label %.loopexit

.lr.ph.i:                                         ; preds = %3, %.thread.i
  %.pre.i43 = phi i32 [ %.pre.i44, %.thread.i ], [ %6, %3 ]
  %8 = phi i32 [ %16, %.thread.i ], [ %6, %3 ]
  %indvars.iv.i = phi i64 [ %indvars.iv.next.i, %.thread.i ], [ 0, %3 ]
  %9 = load ptr, ptr %4, align 8
  %10 = getelementptr inbounds nuw ptr, ptr %9, i64 %indvars.iv.i
  %11 = load ptr, ptr %10, align 8
  %.not.i = icmp eq ptr %11, null
  br i1 %.not.i, label %.thread.i, label %12

12:                                               ; preds = %.lr.ph.i
  %.0912.i = load ptr, ptr %11, align 8
  %.not13.i = icmp eq ptr %.0912.i, null
  br i1 %.not13.i, label %.thread.i, label %.lr.ph.i15

13:                                               ; preds = %.lr.ph.i15
  %14 = getelementptr inbounds nuw i8, ptr %.0914.i, i64 72
  %.09.i = load ptr, ptr %14, align 8
  %.not.i16 = icmp eq ptr %.09.i, null
  br i1 %.not.i16, label %..thread_crit_edge.i.loopexit, label %.lr.ph.i15, !llvm.loop !14

.lr.ph.i15:                                       ; preds = %12, %13
  %.0914.i = phi ptr [ %.09.i, %13 ], [ %.0912.i, %12 ]
  %15 = tail call i32 %1(ptr noundef nonnull %0, ptr noundef nonnull %.0914.i, ptr noundef %2) #7
  %.not11.i = icmp eq i32 %15, 0
  br i1 %.not11.i, label %13, label %evmap_io_foreach_fd.exit

..thread_crit_edge.i.loopexit:                    ; preds = %13
  %.pre.i.pre = load i32, ptr %5, align 8
  br label %.thread.i

.thread.i:                                        ; preds = %12, %..thread_crit_edge.i.loopexit, %.lr.ph.i
  %.pre.i44 = phi i32 [ %.pre.i43, %.lr.ph.i ], [ %.pre.i.pre, %..thread_crit_edge.i.loopexit ], [ %.pre.i43, %12 ]
  %16 = phi i32 [ %8, %.lr.ph.i ], [ %.pre.i.pre, %..thread_crit_edge.i.loopexit ], [ %.pre.i43, %12 ]
  %indvars.iv.next.i = add nuw nsw i64 %indvars.iv.i, 1
  %17 = sext i32 %16 to i64
  %18 = icmp slt i64 %indvars.iv.next.i, %17
  br i1 %18, label %.lr.ph.i, label %.loopexit, !llvm.loop !10

.loopexit:                                        ; preds = %.thread.i, %3
  %19 = getelementptr inbounds nuw i8, ptr %0, i64 824
  %20 = getelementptr inbounds nuw i8, ptr %0, i64 832
  %21 = load i32, ptr %20, align 8
  %22 = icmp sgt i32 %21, 0
  br i1 %22, label %.lr.ph.i7, label %evmap_io_foreach_fd.exit

.lr.ph.i7:                                        ; preds = %.loopexit, %.thread.i13
  %.pre.i1246 = phi i32 [ %.pre.i1247, %.thread.i13 ], [ %21, %.loopexit ]
  %23 = phi i32 [ %31, %.thread.i13 ], [ %21, %.loopexit ]
  %indvars.iv.i8 = phi i64 [ %indvars.iv.next.i14, %.thread.i13 ], [ 0, %.loopexit ]
  %24 = load ptr, ptr %19, align 8
  %25 = getelementptr inbounds nuw ptr, ptr %24, i64 %indvars.iv.i8
  %26 = load ptr, ptr %25, align 8
  %.not.i9 = icmp eq ptr %26, null
  br i1 %.not.i9, label %.thread.i13, label %27

27:                                               ; preds = %.lr.ph.i7
  %.0912.i17 = load ptr, ptr %26, align 8
  %.not13.i18 = icmp eq ptr %.0912.i17, null
  br i1 %.not13.i18, label %.thread.i13, label %.lr.ph.i19

28:                                               ; preds = %.lr.ph.i19
  %29 = getelementptr inbounds nuw i8, ptr %.0914.i20, i64 72
  %.09.i23 = load ptr, ptr %29, align 8
  %.not.i24 = icmp eq ptr %.09.i23, null
  br i1 %.not.i24, label %..thread_crit_edge.i11.loopexit, label %.lr.ph.i19, !llvm.loop !15

.lr.ph.i19:                                       ; preds = %27, %28
  %.0914.i20 = phi ptr [ %.09.i23, %28 ], [ %.0912.i17, %27 ]
  %30 = tail call i32 %1(ptr noundef nonnull %0, ptr noundef nonnull %.0914.i20, ptr noundef %2) #7
  %.not11.i21 = icmp eq i32 %30, 0
  br i1 %.not11.i21, label %28, label %evmap_io_foreach_fd.exit

..thread_crit_edge.i11.loopexit:                  ; preds = %28
  %.pre.i12.pre = load i32, ptr %20, align 8
  br label %.thread.i13

.thread.i13:                                      ; preds = %27, %..thread_crit_edge.i11.loopexit, %.lr.ph.i7
  %.pre.i1247 = phi i32 [ %.pre.i1246, %.lr.ph.i7 ], [ %.pre.i12.pre, %..thread_crit_edge.i11.loopexit ], [ %.pre.i1246, %27 ]
  %31 = phi i32 [ %23, %.lr.ph.i7 ], [ %.pre.i12.pre, %..thread_crit_edge.i11.loopexit ], [ %.pre.i1246, %27 ]
  %indvars.iv.next.i14 = add nuw nsw i64 %indvars.iv.i8, 1
  %32 = sext i32 %31 to i64
  %33 = icmp slt i64 %indvars.iv.next.i14, %32
  br i1 %33, label %.lr.ph.i7, label %evmap_io_foreach_fd.exit, !llvm.loop !11

evmap_io_foreach_fd.exit:                         ; preds = %.lr.ph.i15, %.thread.i13, %.lr.ph.i19, %.loopexit
  %.0 = phi i32 [ 0, %.loopexit ], [ %30, %.lr.ph.i19 ], [ 0, %.thread.i13 ], [ %15, %.lr.ph.i15 ]
  ret i32 %.0
}